; Function Attrs: nounwind uwtable
define void @Gia_ManPrintCollect_rec(ptr noundef %0, ptr noundef %1, ptr noundef %2) local_unnamed_addr #2 {
  %4 = getelementptr i8, ptr %0, i64 32
  %.val18 = load ptr, ptr %4, align 8
  %5 = ptrtoint ptr %1 to i64
  %6 = ptrtoint ptr %.val18 to i64
  %7 = sub i64 %5, %6
  %8 = sdiv exact i64 %7, 12
  %9 = trunc i64 %8 to i32
  %10 = getelementptr inbounds nuw i8, ptr %2, i64 4
  %11 = load i32, ptr %10, align 4
  %12 = icmp sgt i32 %11, 0
  br i1 %12, label %.lr.ph.i, label %Vec_IntFind.exit.thread

.lr.ph.i:                                         ; preds = %3
  %13 = getelementptr inbounds nuw i8, ptr %2, i64 8
  %14 = load ptr, ptr %13, align 8
  %wide.trip.count.i = zext nneg i32 %11 to i64
  br label %15

15:                                               ; preds = %19, %.lr.ph.i
  %indvars.iv.i = phi i64 [ 0, %.lr.ph.i ], [ %indvars.iv.next.i, %19 ]
  %16 = getelementptr inbounds nuw i32, ptr %14, i64 %indvars.iv.i
  %17 = load i32, ptr %16, align 4
  %18 = icmp eq i32 %17, %9
  br i1 %18, label %Vec_IntFind.exit, label %19

19:                                               ; preds = %15
  %indvars.iv.next.i = add nuw nsw i64 %indvars.iv.i, 1
  %exitcond.not.i = icmp eq i64 %indvars.iv.next.i, %wide.trip.count.i
  br i1 %exitcond.not.i, label %Vec_IntFind.exit.thread, label %15, !llvm.loop !55

Vec_IntFind.exit.thread:                          ; preds = %19, %3
  %20 = load i64, ptr %1, align 4
  %21 = and i64 %20, 536870911
  %22 = sub nsw i64 0, %21
  %23 = getelementptr inbounds %struct.Gia_Obj_t_, ptr %1, i64 %22
  tail call void @Gia_ManPrintCollect_rec(ptr noundef %0, ptr noundef nonnull %23, ptr noundef %2)
  %24 = load i64, ptr %1, align 4
  %25 = lshr i64 %24, 32
  %26 = and i64 %25, 536870911
  %27 = sub nsw i64 0, %26
  %28 = getelementptr inbounds %struct.Gia_Obj_t_, ptr %1, i64 %27
  tail call void @Gia_ManPrintCollect_rec(ptr noundef %0, ptr noundef nonnull %28, ptr noundef %2)
  %.val19 = load ptr, ptr %4, align 8
  %29 = getelementptr i8, ptr %0, i64 40
  %.val20 = load ptr, ptr %29, align 8
  %.not.i.i = icmp eq ptr %.val20, null
  br i1 %.not.i.i, label %Gia_ObjIsMux.exit.thread, label %Gia_ObjIsMux.exit

Gia_ObjIsMux.exit:                                ; preds = %Vec_IntFind.exit.thread
  %30 = ptrtoint ptr %.val19 to i64
  %31 = sub i64 %5, %30
  %32 = sdiv exact i64 %31, 12
  %sext.i = shl i64 %32, 32
  %33 = ashr exact i64 %sext.i, 30
  %34 = getelementptr inbounds i8, ptr %.val20, i64 %33
  %35 = load i32, ptr %34, align 4
  %.not24 = icmp eq i32 %35, 0
  br i1 %.not24, label %Gia_ObjIsMux.exit.thread, label %Gia_ObjFanin2.exit

Gia_ObjFanin2.exit:                               ; preds = %Gia_ObjIsMux.exit
  %36 = ashr i32 %35, 1
  %37 = sext i32 %36 to i64
  %38 = getelementptr inbounds %struct.Gia_Obj_t_, ptr %.val19, i64 %37
  tail call void @Gia_ManPrintCollect_rec(ptr noundef nonnull %0, ptr noundef %38, ptr noundef %2)
  %.val.pre = load ptr, ptr %4, align 8
  br label %Gia_ObjIsMux.exit.thread

Gia_ObjIsMux.exit.thread:                         ; preds = %Vec_IntFind.exit.thread, %Gia_ObjFanin2.exit, %Gia_ObjIsMux.exit
  %.val = phi ptr [ %.val19, %Vec_IntFind.exit.thread ], [ %.val.pre, %Gia_ObjFanin2.exit ], [ %.val19, %Gia_ObjIsMux.exit ]
  %39 = ptrtoint ptr %.val to i64
  %40 = sub i64 %5, %39
  %41 = sdiv exact i64 %40, 12
  %42 = trunc i64 %41 to i32
  %43 = load i32, ptr %10, align 4
  %44 = load i32, ptr %2, align 8
  %45 = icmp eq i32 %43, %44
  br i1 %45, label %46, label %.Vec_IntGrow.exit10_crit_edge.i

.Vec_IntGrow.exit10_crit_edge.i:                  ; preds = %Gia_ObjIsMux.exit.thread
  %.phi.trans.insert.i = getelementptr inbounds nuw i8, ptr %2, i64 8
  %.pre.i = load ptr, ptr %.phi.trans.insert.i, align 8
  br label %Vec_IntPush.exit

46:                                               ; preds = %Gia_ObjIsMux.exit.thread
  %47 = icmp slt i32 %43, 16
  br i1 %47, label %48, label %56

48:                                               ; preds = %46
  %49 = getelementptr inbounds nuw i8, ptr %2, i64 8
  %50 = load ptr, ptr %49, align 8
  %.not9.i.i = icmp eq ptr %50, null
  br i1 %.not9.i.i, label %53, label %51

51:                                               ; preds = %48
  %52 = tail call dereferenceable_or_null(64) ptr @realloc(ptr noundef nonnull %50, i64 noundef 64) #39
  br label %Vec_IntGrow.exit.i

53:                                               ; preds = %48
  %54 = tail call noalias dereferenceable_or_null(64) ptr @malloc(i64 noundef 64) #40
  br label %Vec_IntGrow.exit.i

Vec_IntGrow.exit.i:                               ; preds = %53, %51
  %55 = phi ptr [ %52, %51 ], [ %54, %53 ]
  store ptr %55, ptr %49, align 8
  store i32 16, ptr %2, align 8
  br label %Vec_IntPush.exit

56:                                               ; preds = %46
  %57 = shl nuw nsw i32 %43, 1
  %58 = getelementptr inbounds nuw i8, ptr %2, i64 8
  %59 = load ptr, ptr %58, align 8
  %.not9.i9.i = icmp eq ptr %59, null
  %60 = zext nneg i32 %57 to i64
  %61 = shl nuw nsw i64 %60, 2
  br i1 %.not9.i9.i, label %64, label %62

62:                                               ; preds = %56
  %63 = tail call ptr @realloc(ptr noundef nonnull %59, i64 noundef %61) #39
  br label %66

64:                                               ; preds = %56
  %65 = tail call noalias ptr @malloc(i64 noundef %61) #40
  br label %66

66:                                               ; preds = %64, %62
  %67 = phi ptr [ %63, %62 ], [ %65, %64 ]
  store ptr %67, ptr %58, align 8
  store i32 %57, ptr %2, align 8
  br label %Vec_IntPush.exit

Vec_IntPush.exit:                                 ; preds = %.Vec_IntGrow.exit10_crit_edge.i, %Vec_IntGrow.exit.i, %66
  %68 = phi ptr [ %.pre.i, %.Vec_IntGrow.exit10_crit_edge.i ], [ %67, %66 ], [ %55, %Vec_IntGrow.exit.i ]
  %69 = load i32, ptr %10, align 4
  %70 = add nsw i32 %69, 1
  store i32 %70, ptr %10, align 4
  %71 = sext i32 %69 to i64
  %72 = getelementptr inbounds i32, ptr %68, i64 %71
  store i32 %42, ptr %72, align 4
  br label %Vec_IntFind.exit

Vec_IntFind.exit:                                 ; preds = %15, %Vec_IntPush.exit
  ret void
}